target datalayout = "e-m:e-p270:32:32-p271:32:32-p272:64:64-i64:64-i128:128-f80:128-n8:16:32:64-S128"
target triple = "x86_64-pc-linux-gnu"

%struct.ItemPointerData = type { %struct.BlockIdData, i16 }
%struct.BlockIdData = type { i16, i16 }
%struct.HeapTupleHeaderData = type { %union.anon.1, %struct.ItemPointerData, i16, i16, i8, [0 x i8] }
%union.anon.1 = type { %struct.HeapTupleFields }
%struct.HeapTupleFields = type { i32, i32, %union.anon.2 }
%union.anon.2 = type { i32 }
%struct.MultiXactMember = type { i32, i32 }
%struct.VacuumCutoffs = type { i32, i32, i32, i32, i32, i32 }

; Function Attrs: inlinehint nounwind uwtable
define internal i32 @HeapTupleHeaderGetRawXmin(ptr noundef %0) #3 {
  %2 = alloca ptr, align 8
  store ptr %0, ptr %2, align 8
  %3 = load ptr, ptr %2, align 8
  %4 = getelementptr inbounds nuw %struct.HeapTupleHeaderData, ptr %3, i32 0, i32 0
  %5 = getelementptr inbounds nuw %struct.HeapTupleFields, ptr %4, i32 0, i32 0
  %6 = load i32, ptr %5, align 4
  ret i32 %6
}

; Function Attrs: inlinehint nounwind uwtable
define internal zeroext i1 @HeapTupleHeaderXminFrozen(ptr noundef %0) #3 {
  %2 = alloca ptr, align 8
  store ptr %0, ptr %2, align 8
  %3 = load ptr, ptr %2, align 8
  %4 = getelementptr inbounds nuw %struct.HeapTupleHeaderData, ptr %3, i32 0, i32 3
  %5 = load i16, ptr %4, align 4
  %6 = zext i16 %5 to i32
  %7 = and i32 %6, 768
  %8 = icmp eq i32 %7, 768
  ret i1 %8
}

; Function Attrs: inlinehint nounwind uwtable
define internal i32 @HeapTupleHeaderGetXvac(ptr noundef %0) #3 {
  %2 = alloca i32, align 4
  %3 = alloca ptr, align 8
  store ptr %0, ptr %3, align 8
  %4 = load ptr, ptr %3, align 8
  %5 = getelementptr inbounds nuw %struct.HeapTupleHeaderData, ptr %4, i32 0, i32 3
  %6 = load i16, ptr %5, align 4
  %7 = zext i16 %6 to i32
  %8 = and i32 %7, 49152
  %9 = icmp ne i32 %8, 0
  br i1 %9, label %10, label %15

10:                                               ; preds = %1
  %11 = load ptr, ptr %3, align 8
  %12 = getelementptr inbounds nuw %struct.HeapTupleHeaderData, ptr %11, i32 0, i32 0
  %13 = getelementptr inbounds nuw %struct.HeapTupleFields, ptr %12, i32 0, i32 2
  %14 = load i32, ptr %13, align 4
  store i32 %14, ptr %2, align 4
  br label %16

15:                                               ; preds = %1
  store i32 0, ptr %2, align 4
  br label %16

16:                                               ; preds = %15, %10
  %17 = load i32, ptr %2, align 4
  ret i32 %17
}

; Function Attrs: inlinehint nounwind uwtable
define internal zeroext i1 @HEAP_XMAX_IS_LOCKED_ONLY(i16 noundef zeroext %0) #3 {
  %2 = alloca i16, align 2
  store i16 %0, ptr %2, align 2
  %3 = load i16, ptr %2, align 2
  %4 = zext i16 %3 to i32
  %5 = and i32 %4, 128
  %6 = icmp ne i32 %5, 0
  br i1 %6, label %12, label %7

7:                                                ; preds = %1
  %8 = load i16, ptr %2, align 2
  %9 = zext i16 %8 to i32
  %10 = and i32 %9, 4176
  %11 = icmp eq i32 %10, 64
  br label %12

12:                                               ; preds = %7, %1
  %13 = phi i1 [ true, %1 ], [ %11, %7 ]
  ret i1 %13
}

; Function Attrs: inlinehint nounwind uwtable
define internal zeroext i1 @HEAP_LOCKED_UPGRADED(i16 noundef zeroext %0) #3 {
  %2 = alloca i16, align 2
  store i16 %0, ptr %2, align 2
  %3 = load i16, ptr %2, align 2
  %4 = zext i16 %3 to i32
  %5 = and i32 %4, 4096
  %6 = icmp ne i32 %5, 0
  br i1 %6, label %7, label %17

7:                                                ; preds = %1
  %8 = load i16, ptr %2, align 2
  %9 = zext i16 %8 to i32
  %10 = and i32 %9, 128
  %11 = icmp ne i32 %10, 0
  br i1 %11, label %12, label %17

12:                                               ; preds = %7
  %13 = load i16, ptr %2, align 2
  %14 = zext i16 %13 to i32
  %15 = and i32 %14, 80
  %16 = icmp eq i32 %15, 0
  br label %17

17:                                               ; preds = %12, %7, %1
  %18 = phi i1 [ false, %7 ], [ false, %1 ], [ %16, %12 ]
  ret i1 %18
}

; Function Attrs: inlinehint nounwind uwtable
define internal i32 @HeapTupleHeaderGetRawXmax(ptr noundef %0) #3 {
  %2 = alloca ptr, align 8
  store ptr %0, ptr %2, align 8
  %3 = load ptr, ptr %2, align 8
  %4 = getelementptr inbounds nuw %struct.HeapTupleHeaderData, ptr %3, i32 0, i32 0
  %5 = getelementptr inbounds nuw %struct.HeapTupleFields, ptr %4, i32 0, i32 1
  %6 = load i32, ptr %5, align 4
  ret i32 %6
}

; Function Attrs: inlinehint nounwind uwtable
define internal i32 @HeapTupleHeaderGetXmin(ptr noundef %0) #3 {
  %2 = alloca ptr, align 8
  store ptr %0, ptr %2, align 8
  %3 = load ptr, ptr %2, align 8
  %4 = call zeroext i1 @HeapTupleHeaderXminFrozen(ptr noundef %3)
  br i1 %4, label %5, label %6

5:                                                ; preds = %1
  br label %9

6:                                                ; preds = %1
  %7 = load ptr, ptr %2, align 8
  %8 = call i32 @HeapTupleHeaderGetRawXmin(ptr noundef %7)
  br label %9

9:                                                ; preds = %6, %5
  %10 = phi i32 [ 2, %5 ], [ %8, %6 ]
  ret i32 %10
}

; Function Attrs: nounwind uwtable
define dso_local zeroext i1 @heap_tuple_should_freeze(ptr noundef %0, ptr noundef %1, ptr noundef %2, ptr noundef %3) #0 {
  %5 = alloca ptr, align 8
  %6 = alloca ptr, align 8
  %7 = alloca ptr, align 8
  %8 = alloca ptr, align 8
  %9 = alloca i32, align 4
  %10 = alloca i32, align 4
  %11 = alloca i8, align 1
  %12 = alloca ptr, align 8
  %13 = alloca i32, align 4
  %14 = alloca i32, align 4
  store ptr %0, ptr %5, align 8
  store ptr %1, ptr %6, align 8
  store ptr %2, ptr %7, align 8
  store ptr %3, ptr %8, align 8
  call void @llvm.lifetime.start.p0(i64 4, ptr %9) #10
  call void @llvm.lifetime.start.p0(i64 4, ptr %10) #10
  call void @llvm.lifetime.start.p0(i64 1, ptr %11) #10
  store i8 0, ptr %11, align 1
  %15 = load ptr, ptr %5, align 8
  %16 = call i32 @HeapTupleHeaderGetXmin(ptr noundef %15)
  store i32 %16, ptr %9, align 4
  %17 = load i32, ptr %9, align 4
  %18 = icmp uge i32 %17, 3
  br i1 %18, label %19, label %35

19:                                               ; preds = %4
  %20 = load i32, ptr %9, align 4
  %21 = load ptr, ptr %7, align 8
  %22 = load i32, ptr %21, align 4
  %23 = call zeroext i1 @TransactionIdPrecedes(i32 noundef %20, i32 noundef %22)
  br i1 %23, label %24, label %27

24:                                               ; preds = %19
  %25 = load i32, ptr %9, align 4
  %26 = load ptr, ptr %7, align 8
  store i32 %25, ptr %26, align 4
  br label %27

27:                                               ; preds = %24, %19
  %28 = load i32, ptr %9, align 4
  %29 = load ptr, ptr %6, align 8
  %30 = getelementptr inbounds nuw %struct.VacuumCutoffs, ptr %29, i32 0, i32 4
  %31 = load i32, ptr %30, align 4
  %32 = call zeroext i1 @TransactionIdPrecedes(i32 noundef %28, i32 noundef %31)
  br i1 %32, label %33, label %34

33:                                               ; preds = %27
  store i8 1, ptr %11, align 1
  br label %34

34:                                               ; preds = %33, %27
  br label %35

35:                                               ; preds = %34, %4
  store i32 0, ptr %9, align 4
  store i32 0, ptr %10, align 4
  %36 = load ptr, ptr %5, align 8
  %37 = getelementptr inbounds nuw %struct.HeapTupleHeaderData, ptr %36, i32 0, i32 3
  %38 = load i16, ptr %37, align 4
  %39 = zext i16 %38 to i32
  %40 = and i32 %39, 4096
  %41 = icmp ne i32 %40, 0
  br i1 %41, label %42, label %45

42:                                               ; preds = %35
  %43 = load ptr, ptr %5, align 8
  %44 = call i32 @HeapTupleHeaderGetRawXmax(ptr noundef %43)
  store i32 %44, ptr %10, align 4
  br label %48

45:                                               ; preds = %35
  %46 = load ptr, ptr %5, align 8
  %47 = call i32 @HeapTupleHeaderGetRawXmax(ptr noundef %46)
  store i32 %47, ptr %9, align 4
  br label %48

48:                                               ; preds = %45, %42
  %49 = load i32, ptr %9, align 4
  %50 = icmp uge i32 %49, 3
  br i1 %50, label %51, label %67

51:                                               ; preds = %48
  %52 = load i32, ptr %9, align 4
  %53 = load ptr, ptr %7, align 8
  %54 = load i32, ptr %53, align 4
  %55 = call zeroext i1 @TransactionIdPrecedes(i32 noundef %52, i32 noundef %54)
  br i1 %55, label %56, label %59

56:                                               ; preds = %51
  %57 = load i32, ptr %9, align 4
  %58 = load ptr, ptr %7, align 8
  store i32 %57, ptr %58, align 4
  br label %59

59:                                               ; preds = %56, %51
  %60 = load i32, ptr %9, align 4
  %61 = load ptr, ptr %6, align 8
  %62 = getelementptr inbounds nuw %struct.VacuumCutoffs, ptr %61, i32 0, i32 4
  %63 = load i32, ptr %62, align 4
  %64 = call zeroext i1 @TransactionIdPrecedes(i32 noundef %60, i32 noundef %63)
  br i1 %64, label %65, label %66

65:                                               ; preds = %59
  store i8 1, ptr %11, align 1
  br label %66

66:                                               ; preds = %65, %59
  br label %145

67:                                               ; preds = %48
  %68 = load i32, ptr %10, align 4
  %69 = icmp ne i32 %68, 0
  br i1 %69, label %71, label %70

70:                                               ; preds = %67
  br label %144

71:                                               ; preds = %67
  %72 = load ptr, ptr %5, align 8
  %73 = getelementptr inbounds nuw %struct.HeapTupleHeaderData, ptr %72, i32 0, i32 3
  %74 = load i16, ptr %73, align 4
  %75 = call zeroext i1 @HEAP_LOCKED_UPGRADED(i16 noundef zeroext %74)
  br i1 %75, label %76, label %85

76:                                               ; preds = %71
  %77 = load i32, ptr %10, align 4
  %78 = load ptr, ptr %8, align 8
  %79 = load i32, ptr %78, align 4
  %80 = call zeroext i1 @MultiXactIdPrecedes(i32 noundef %77, i32 noundef %79)
  br i1 %80, label %81, label %84

81:                                               ; preds = %76
  %82 = load i32, ptr %10, align 4
  %83 = load ptr, ptr %8, align 8
  store i32 %82, ptr %83, align 4
  br label %84

84:                                               ; preds = %81, %76
  store i8 1, ptr %11, align 1
  br label %143

85:                                               ; preds = %71
  call void @llvm.lifetime.start.p0(i64 8, ptr %12) #10
  call void @llvm.lifetime.start.p0(i64 4, ptr %13) #10
  %86 = load i32, ptr %10, align 4
  %87 = load ptr, ptr %8, align 8
  %88 = load i32, ptr %87, align 4
  %89 = call zeroext i1 @MultiXactIdPrecedes(i32 noundef %86, i32 noundef %88)
  br i1 %89, label %90, label %93

90:                                               ; preds = %85
  %91 = load i32, ptr %10, align 4
  %92 = load ptr, ptr %8, align 8
  store i32 %91, ptr %92, align 4
  br label %93

93:                                               ; preds = %90, %85
  %94 = load i32, ptr %10, align 4
  %95 = load ptr, ptr %6, align 8
  %96 = getelementptr inbounds nuw %struct.VacuumCutoffs, ptr %95, i32 0, i32 5
  %97 = load i32, ptr %96, align 4
  %98 = call zeroext i1 @MultiXactIdPrecedes(i32 noundef %94, i32 noundef %97)
  br i1 %98, label %99, label %100

99:                                               ; preds = %93
  store i8 1, ptr %11, align 1
  br label %100

100:                                              ; preds = %99, %93
  %101 = load i32, ptr %10, align 4
  %102 = load ptr, ptr %5, align 8
  %103 = getelementptr inbounds nuw %struct.HeapTupleHeaderData, ptr %102, i32 0, i32 3
  %104 = load i16, ptr %103, align 4
  %105 = call zeroext i1 @HEAP_XMAX_IS_LOCKED_ONLY(i16 noundef zeroext %104)
  %106 = call i32 @GetMultiXactIdMembers(i32 noundef %101, ptr noundef %12, i1 noundef zeroext false, i1 noundef zeroext %105)
  store i32 %106, ptr %13, align 4
  call void @llvm.lifetime.start.p0(i64 4, ptr %14) #10
  store i32 0, ptr %14, align 4
  br label %107

107:                                              ; preds = %134, %100
  %108 = load i32, ptr %14, align 4
  %109 = load i32, ptr %13, align 4
  %110 = icmp slt i32 %108, %109
  br i1 %110, label %112, label %111

111:                                              ; preds = %107
  call void @llvm.lifetime.end.p0(i64 4, ptr %14) #10
  br label %137

112:                                              ; preds = %107
  %113 = load ptr, ptr %12, align 8
  %114 = load i32, ptr %14, align 4
  %115 = sext i32 %114 to i64
  %116 = getelementptr inbounds %struct.MultiXactMember, ptr %113, i64 %115
  %117 = getelementptr inbounds nuw %struct.MultiXactMember, ptr %116, i32 0, i32 0
  %118 = load i32, ptr %117, align 4
  store i32 %118, ptr %9, align 4
  %119 = load i32, ptr %9, align 4
  %120 = load ptr, ptr %7, align 8
  %121 = load i32, ptr %120, align 4
  %122 = call zeroext i1 @TransactionIdPrecedes(i32 noundef %119, i32 noundef %121)
  br i1 %122, label %123, label %126

123:                                              ; preds = %112
  %124 = load i32, ptr %9, align 4
  %125 = load ptr, ptr %7, align 8
  store i32 %124, ptr %125, align 4
  br label %126

126:                                              ; preds = %123, %112
  %127 = load i32, ptr %9, align 4
  %128 = load ptr, ptr %6, align 8
  %129 = getelementptr inbounds nuw %struct.VacuumCutoffs, ptr %128, i32 0, i32 4
  %130 = load i32, ptr %129, align 4
  %131 = call zeroext i1 @TransactionIdPrecedes(i32 noundef %127, i32 noundef %130)
  br i1 %131, label %132, label %133

132:                                              ; preds = %126
  store i8 1, ptr %11, align 1
  br label %133

133:                                              ; preds = %132, %126
  br label %134

134:                                              ; preds = %133
  %135 = load i32, ptr %14, align 4
  %136 = add i32 %135, 1
  store i32 %136, ptr %14, align 4
  br label %107, !llvm.loop !26

137:                                              ; preds = %111
  %138 = load i32, ptr %13, align 4
  %139 = icmp sgt i32 %138, 0
  br i1 %139, label %140, label %142

140:                                              ; preds = %137
  %141 = load ptr, ptr %12, align 8
  call void @pfree(ptr noundef %141)
  br label %142

142:                                              ; preds = %140, %137
  call void @llvm.lifetime.end.p0(i64 4, ptr %13) #10
  call void @llvm.lifetime.end.p0(i64 8, ptr %12) #10
  br label %143

143:                                              ; preds = %142, %84
  br label %144

144:                                              ; preds = %143, %70
  br label %145

145:                                              ; preds = %144, %66
  %146 = load ptr, ptr %5, align 8
  %147 = getelementptr inbounds nuw %struct.HeapTupleHeaderData, ptr %146, i32 0, i32 3
  %148 = load i16, ptr %147, align 4
  %149 = zext i16 %148 to i32
  %150 = and i32 %149, 49152
  %151 = icmp ne i32 %150, 0
  br i1 %151, label %152, label %167

152:                                              ; preds = %145
  %153 = load ptr, ptr %5, align 8
  %154 = call i32 @HeapTupleHeaderGetXvac(ptr noundef %153)
  store i32 %154, ptr %9, align 4
  %155 = load i32, ptr %9, align 4
  %156 = icmp uge i32 %155, 3
  br i1 %156, label %157, label %166

157:                                              ; preds = %152
  %158 = load i32, ptr %9, align 4
  %159 = load ptr, ptr %7, align 8
  %160 = load i32, ptr %159, align 4
  %161 = call zeroext i1 @TransactionIdPrecedes(i32 noundef %158, i32 noundef %160)
  br i1 %161, label %162, label %165

162:                                              ; preds = %157
  %163 = load i32, ptr %9, align 4
  %164 = load ptr, ptr %7, align 8
  store i32 %163, ptr %164, align 4
  br label %165

165:                                              ; preds = %162, %157
  store i8 1, ptr %11, align 1
  br label %166

166:                                              ; preds = %165, %152
  br label %167

167:                                              ; preds = %166, %145
  %168 = load i8, ptr %11, align 1, !range !4, !noundef !5
  %169 = trunc i8 %168 to i1
  call void @llvm.lifetime.end.p0(i64 1, ptr %11) #10
  call void @llvm.lifetime.end.p0(i64 4, ptr %10) #10
  call void @llvm.lifetime.end.p0(i64 4, ptr %9) #10
  ret i1 %169
}