; Function Attrs: nounwind uwtable
define dso_local zeroext i1 @heap_tuple_should_freeze(ptr noundef readonly captures(none) %0, ptr noundef readonly captures(none) %1, ptr noundef captures(none) %2, ptr noundef captures(none) %3) local_unnamed_addr #2 {
  %5 = alloca ptr, align 8
  %6 = getelementptr i8, ptr %0, i64 20
  %.val.i = load i16, ptr %6, align 4
  %7 = and i16 %.val.i, 768
  %8 = icmp eq i16 %7, 768
  br i1 %8, label %HeapTupleHeaderGetXmin.exit.thread, label %HeapTupleHeaderGetXmin.exit

HeapTupleHeaderGetXmin.exit:                      ; preds = %4
  %.val2.i = load i32, ptr %0, align 4
  %9 = icmp ugt i32 %.val2.i, 2
  br i1 %9, label %10, label %HeapTupleHeaderGetXmin.exit.thread

10:                                               ; preds = %HeapTupleHeaderGetXmin.exit
  %11 = load i32, ptr %2, align 4
  %12 = tail call zeroext i1 @TransactionIdPrecedes(i32 noundef %.val2.i, i32 noundef %11) #13
  br i1 %12, label %13, label %14

13:                                               ; preds = %10
  store i32 %.val2.i, ptr %2, align 4
  br label %14

14:                                               ; preds = %13, %10
  %15 = getelementptr inbounds nuw i8, ptr %1, i64 16
  %16 = load i32, ptr %15, align 4
  %17 = tail call zeroext i1 @TransactionIdPrecedes(i32 noundef %.val2.i, i32 noundef %16) #13
  %.pre = load i16, ptr %6, align 4
  br label %HeapTupleHeaderGetXmin.exit.thread

HeapTupleHeaderGetXmin.exit.thread:               ; preds = %4, %14, %HeapTupleHeaderGetXmin.exit
  %18 = phi i16 [ %.val.i, %HeapTupleHeaderGetXmin.exit ], [ %.pre, %14 ], [ %.val.i, %4 ]
  %.051 = phi i1 [ false, %HeapTupleHeaderGetXmin.exit ], [ %17, %14 ], [ false, %4 ]
  %19 = and i16 %18, 4096
  %.not = icmp eq i16 %19, 0
  %20 = getelementptr i8, ptr %0, i64 4
  %.val = load i32, ptr %20, align 4
  %. = select i1 %.not, i32 0, i32 %.val
  %.58 = select i1 %.not, i32 %.val, i32 0
  %21 = icmp ugt i32 %.58, 2
  br i1 %21, label %22, label %30

22:                                               ; preds = %HeapTupleHeaderGetXmin.exit.thread
  %23 = load i32, ptr %2, align 4
  %24 = tail call zeroext i1 @TransactionIdPrecedes(i32 noundef %.58, i32 noundef %23) #13
  br i1 %24, label %25, label %26

25:                                               ; preds = %22
  store i32 %.58, ptr %2, align 4
  br label %26

26:                                               ; preds = %25, %22
  %27 = getelementptr inbounds nuw i8, ptr %1, i64 16
  %28 = load i32, ptr %27, align 4
  %29 = tail call zeroext i1 @TransactionIdPrecedes(i32 noundef %.58, i32 noundef %28) #13
  %spec.select59 = select i1 %29, i1 true, i1 %.051
  br label %67

30:                                               ; preds = %HeapTupleHeaderGetXmin.exit.thread
  %.not56 = icmp eq i32 %., 0
  br i1 %.not56, label %67, label %31

31:                                               ; preds = %30
  %32 = and i16 %18, 4304
  %33 = icmp eq i16 %32, 4224
  br i1 %33, label %34, label %38

34:                                               ; preds = %31
  %35 = load i32, ptr %3, align 4
  %36 = tail call zeroext i1 @MultiXactIdPrecedes(i32 noundef %., i32 noundef %35) #13
  br i1 %36, label %37, label %67

37:                                               ; preds = %34
  store i32 %., ptr %3, align 4
  br label %67

38:                                               ; preds = %31
  call void @llvm.lifetime.start.p0(i64 8, ptr nonnull %5) #13
  %39 = load i32, ptr %3, align 4
  %40 = tail call zeroext i1 @MultiXactIdPrecedes(i32 noundef %., i32 noundef %39) #13
  br i1 %40, label %41, label %42

41:                                               ; preds = %38
  store i32 %., ptr %3, align 4
  br label %42

42:                                               ; preds = %41, %38
  %43 = getelementptr inbounds nuw i8, ptr %1, i64 20
  %44 = load i32, ptr %43, align 4
  %45 = tail call zeroext i1 @MultiXactIdPrecedes(i32 noundef %., i32 noundef %44) #13
  %spec.select60 = select i1 %45, i1 true, i1 %.051
  %46 = load i16, ptr %6, align 4
  %47 = zext i16 %46 to i32
  %48 = and i32 %47, 128
  %49 = icmp ne i32 %48, 0
  %50 = and i32 %47, 4176
  %51 = icmp eq i32 %50, 64
  %52 = or i1 %49, %51
  %53 = call i32 @GetMultiXactIdMembers(i32 noundef %., ptr noundef nonnull %5, i1 noundef zeroext false, i1 noundef zeroext %52) #13
  %54 = icmp sgt i32 %53, 0
  br i1 %54, label %.lr.ph, label %._crit_edge.thread

.lr.ph:                                           ; preds = %42
  %55 = getelementptr inbounds nuw i8, ptr %1, i64 16
  %wide.trip.count = zext nneg i32 %53 to i64
  br label %56

56:                                               ; preds = %.lr.ph, %63
  %indvars.iv = phi i64 [ 0, %.lr.ph ], [ %indvars.iv.next, %63 ]
  %.362 = phi i1 [ %spec.select60, %.lr.ph ], [ %spec.select61, %63 ]
  %57 = load ptr, ptr %5, align 8
  %58 = getelementptr inbounds nuw %struct.MultiXactMember, ptr %57, i64 %indvars.iv
  %59 = load i32, ptr %58, align 4
  %60 = load i32, ptr %2, align 4
  %61 = call zeroext i1 @TransactionIdPrecedes(i32 noundef %59, i32 noundef %60) #13
  br i1 %61, label %62, label %63

62:                                               ; preds = %56
  store i32 %59, ptr %2, align 4
  br label %63

63:                                               ; preds = %62, %56
  %64 = load i32, ptr %55, align 4
  %65 = call zeroext i1 @TransactionIdPrecedes(i32 noundef %59, i32 noundef %64) #13
  %spec.select61 = select i1 %65, i1 true, i1 %.362
  %indvars.iv.next = add nuw nsw i64 %indvars.iv, 1
  %exitcond.not = icmp eq i64 %indvars.iv.next, %wide.trip.count
  br i1 %exitcond.not, label %._crit_edge, label %56, !llvm.loop !33

._crit_edge:                                      ; preds = %63
  %66 = load ptr, ptr %5, align 8
  call void @pfree(ptr noundef %66) #13
  br label %._crit_edge.thread

._crit_edge.thread:                               ; preds = %42, %._crit_edge
  %.3.lcssa65 = phi i1 [ %spec.select61, %._crit_edge ], [ %spec.select60, %42 ]
  call void @llvm.lifetime.end.p0(i64 8, ptr nonnull %5) #13
  br label %67

67:                                               ; preds = %26, %34, %37, %30, %._crit_edge.thread
  %.1 = phi i1 [ %.3.lcssa65, %._crit_edge.thread ], [ %.051, %30 ], [ %spec.select59, %26 ], [ true, %37 ], [ true, %34 ]
  %68 = load i16, ptr %6, align 4
  %.not57 = icmp ult i16 %68, 16384
  br i1 %.not57, label %76, label %HeapTupleHeaderGetXvac.exit

HeapTupleHeaderGetXvac.exit:                      ; preds = %67
  %69 = getelementptr inbounds nuw i8, ptr %0, i64 8
  %70 = load i32, ptr %69, align 4
  %71 = icmp ugt i32 %70, 2
  br i1 %71, label %72, label %76

72:                                               ; preds = %HeapTupleHeaderGetXvac.exit
  %73 = load i32, ptr %2, align 4
  %74 = call zeroext i1 @TransactionIdPrecedes(i32 noundef %70, i32 noundef %73) #13
  br i1 %74, label %75, label %76

75:                                               ; preds = %72
  store i32 %70, ptr %2, align 4
  br label %76

76:                                               ; preds = %72, %75, %HeapTupleHeaderGetXvac.exit, %67
  %.5 = phi i1 [ %.1, %HeapTupleHeaderGetXvac.exit ], [ %.1, %67 ], [ true, %75 ], [ true, %72 ]
  ret i1 %.5
}